target datalayout = "e-m:e-p270:32:32-p271:32:32-p272:64:64-i64:64-i128:128-f80:128-n8:16:32:64-S128"
target triple = "x86_64-pc-linux-gnu"

%struct.ParseContext_ = type { %struct.TokenData, i32, %union.SourceSpan, %union.SourceSpan, ptr, %struct.Lexer }
%struct.TokenData = type { ptr, i64, %union.anon.86 }
%union.anon.86 = type { %struct.anon.89 }
%struct.anon.89 = type { %struct.Int128_, i8 }
%struct.Int128_ = type { i64, i64 }
%union.SourceSpan = type { i64 }
%struct.Lexer = type { ptr, ptr, ptr, ptr, i32, i32, ptr, ptr, ptr, %struct.TokenData, %union.SourceSpan, i32, i32 }
%struct.VHeader_ = type { i32, i32, [0 x i8] }
%struct.Expr_ = type { ptr, %union.SourceSpan, i16, %union.anon.30 }
%union.anon.30 = type { %struct.ExprAnySwitch }
%struct.ExprAnySwitch = type { i8, %union.anon.32 }
%union.anon.32 = type { %struct.anon.33 }
%struct.anon.33 = type { ptr, %union.SourceSpan, ptr }
%struct.Decl_ = type { ptr, ptr, %union.SourceSpan, i64, %union.anon, i32, %union.anon.1, i64, ptr, ptr, ptr, %union.anon.2 }
%union.anon = type { ptr }
%union.anon.1 = type { i16 }
%union.anon.2 = type { %struct.FuncDecl }
%struct.FuncDecl = type { i32, [4 x i8], %struct.Signature_, i32, i32, %union.anon.9 }
%struct.Signature_ = type <{ %struct.CalleeAttributes, i16, i8, i32, i32, [4 x i8], ptr }>
%struct.CalleeAttributes = type { i8 }
%union.anon.9 = type { %struct.anon.10 }
%struct.anon.10 = type { i16, %union.anon.11 }
%union.anon.11 = type { ptr }
%struct.ExecDecl = type { ptr, ptr }

@.str.16 = private unnamed_addr constant [13 x i8] c"Expected ';'\00", align 1
@poisoned_decl = external global ptr, align 8
@.str.82 = private unnamed_addr constant [15 x i8] c"Expected '%s'.\00", align 1

; Function Attrs: nounwind uwtable
define internal ptr @vec_new_(i64 noundef %0, i64 noundef %1) #0 {
  %3 = alloca i64, align 8
  %4 = alloca i64, align 8
  %5 = alloca ptr, align 8
  store i64 %0, ptr %3, align 8
  store i64 %1, ptr %4, align 8
  %6 = load i64, ptr %3, align 8
  %7 = load i64, ptr %4, align 8
  %8 = mul i64 %6, %7
  %9 = add i64 %8, 8
  %10 = call ptr @calloc_arena(i64 noundef %9)
  store ptr %10, ptr %5, align 8
  %11 = load i64, ptr %4, align 8
  %12 = trunc i64 %11 to i32
  %13 = load ptr, ptr %5, align 8
  %14 = getelementptr inbounds %struct.VHeader_, ptr %13, i32 0, i32 1
  store i32 %12, ptr %14, align 4
  %15 = load ptr, ptr %5, align 8
  ret ptr %15
}

; Function Attrs: nounwind uwtable
define internal ptr @expand_(ptr noundef %0, i64 noundef %1) #0 {
  %3 = alloca ptr, align 8
  %4 = alloca i64, align 8
  %5 = alloca ptr, align 8
  %6 = alloca ptr, align 8
  %7 = alloca i64, align 8
  store ptr %0, ptr %3, align 8
  store i64 %1, ptr %4, align 8
  %8 = load ptr, ptr %3, align 8
  %9 = icmp ne ptr %8, null
  br i1 %9, label %13, label %10

10:                                               ; preds = %2
  %11 = load i64, ptr %4, align 8
  %12 = call ptr @vec_new_(i64 noundef %11, i64 noundef 8)
  store ptr %12, ptr %5, align 8
  br label %16

13:                                               ; preds = %2
  %14 = load ptr, ptr %3, align 8
  %15 = getelementptr inbounds %struct.VHeader_, ptr %14, i64 -1
  store ptr %15, ptr %5, align 8
  br label %16

16:                                               ; preds = %13, %10
  %17 = load ptr, ptr %5, align 8
  %18 = getelementptr inbounds %struct.VHeader_, ptr %17, i32 0, i32 0
  %19 = load i32, ptr %18, align 4
  %20 = load ptr, ptr %5, align 8
  %21 = getelementptr inbounds %struct.VHeader_, ptr %20, i32 0, i32 1
  %22 = load i32, ptr %21, align 4
  %23 = icmp eq i32 %19, %22
  br i1 %23, label %24, label %49

24:                                               ; preds = %16
  %25 = load i64, ptr %4, align 8
  %26 = load ptr, ptr %5, align 8
  %27 = getelementptr inbounds %struct.VHeader_, ptr %26, i32 0, i32 1
  %28 = load i32, ptr %27, align 4
  %29 = shl i32 %28, 1
  %30 = zext i32 %29 to i64
  %31 = call ptr @vec_new_(i64 noundef %25, i64 noundef %30)
  store ptr %31, ptr %6, align 8
  %32 = load i64, ptr %4, align 8
  %33 = load ptr, ptr %5, align 8
  %34 = getelementptr inbounds %struct.VHeader_, ptr %33, i32 0, i32 1
  %35 = load i32, ptr %34, align 4
  %36 = zext i32 %35 to i64
  %37 = mul i64 %32, %36
  %38 = add i64 %37, 8
  store i64 %38, ptr %7, align 8
  %39 = load ptr, ptr %6, align 8
  %40 = load ptr, ptr %5, align 8
  %41 = load i64, ptr %7, align 8
  call void @llvm.memcpy.p0.p0.i64(ptr align 4 %39, ptr align 4 %40, i64 %41, i1 false)
  %42 = load ptr, ptr %6, align 8
  store ptr %42, ptr %5, align 8
  %43 = load ptr, ptr %5, align 8
  %44 = getelementptr inbounds %struct.VHeader_, ptr %43, i32 0, i32 1
  %45 = load i32, ptr %44, align 4
  %46 = shl i32 %45, 1
  %47 = load ptr, ptr %6, align 8
  %48 = getelementptr inbounds %struct.VHeader_, ptr %47, i32 0, i32 1
  store i32 %46, ptr %48, align 4
  br label %49

49:                                               ; preds = %24, %16
  %50 = load ptr, ptr %5, align 8
  %51 = getelementptr inbounds %struct.VHeader_, ptr %50, i32 0, i32 0
  %52 = load i32, ptr %51, align 4
  %53 = add i32 %52, 1
  store i32 %53, ptr %51, align 4
  %54 = load ptr, ptr %5, align 8
  %55 = getelementptr inbounds %struct.VHeader_, ptr %54, i64 1
  ret ptr %55
}

; Function Attrs: nounwind uwtable
define internal ptr @parse_exec(ptr noundef %0) #0 {
  %2 = alloca ptr, align 8
  %3 = alloca ptr, align 8
  %4 = alloca ptr, align 8
  %5 = alloca i32, align 4
  %6 = alloca ptr, align 8
  %7 = alloca i32, align 4
  %8 = alloca i1, align 1
  %9 = alloca ptr, align 8
  %10 = alloca i32, align 4
  %11 = alloca ptr, align 8
  %12 = alloca i32, align 4
  %13 = alloca i1, align 1
  %14 = alloca ptr, align 8
  %15 = alloca i32, align 4
  %16 = alloca i32, align 4
  %17 = alloca ptr, align 8
  %18 = alloca ptr, align 8
  %19 = alloca ptr, align 8
  %20 = alloca i32, align 4
  %21 = alloca ptr, align 8
  %22 = alloca ptr, align 8
  %23 = alloca %union.SourceSpan, align 8
  %24 = alloca ptr, align 8
  %25 = alloca ptr, align 8
  %26 = alloca ptr, align 8
  %27 = alloca ptr, align 8
  %28 = alloca ptr, align 8
  store ptr %0, ptr %22, align 8
  %29 = load ptr, ptr %22, align 8
  %30 = getelementptr inbounds %struct.ParseContext_, ptr %29, i32 0, i32 2
  call void @llvm.memcpy.p0.p0.i64(ptr align 8 %23, ptr align 8 %30, i64 8, i1 false)
  %31 = getelementptr inbounds %union.SourceSpan, ptr %23, i32 0, i32 0
  %32 = load i64, ptr %31, align 8
  %33 = call ptr @decl_new(i32 noundef 6, ptr noundef null, i64 %32)
  store ptr %33, ptr %24, align 8
  %34 = load ptr, ptr %22, align 8
  store ptr %34, ptr %4, align 8
  store i32 162, ptr %5, align 4
  %35 = load ptr, ptr %4, align 8
  call void @advance(ptr noundef %35) #6
  br label %36

36:                                               ; preds = %1
  %37 = load ptr, ptr %22, align 8
  store ptr %37, ptr %9, align 8
  store i32 19, ptr %10, align 4
  %38 = load ptr, ptr %9, align 8
  %39 = load i32, ptr %10, align 4
  store ptr %38, ptr %6, align 8
  store i32 %39, ptr %7, align 4
  %40 = load ptr, ptr %6, align 8
  %41 = getelementptr inbounds %struct.ParseContext_, ptr %40, i32 0, i32 1
  %42 = load i32, ptr %41, align 8
  %43 = load i32, ptr %7, align 4
  %44 = icmp eq i32 %42, %43
  br i1 %44, label %45, label %46

45:                                               ; preds = %36
  store i1 true, ptr %8, align 1
  br label %52

46:                                               ; preds = %36
  %47 = load ptr, ptr %9, align 8
  %48 = getelementptr inbounds %struct.ParseContext_, ptr %47, i32 0, i32 2
  %49 = load i32, ptr %10, align 4
  %50 = call ptr @token_type_to_string(i32 noundef %49) #6
  %51 = load i64, ptr %48, align 8
  call void (i64, ptr, ...) @sema_error_at(i64 %51, ptr noundef @.str.82, ptr noundef %50) #6
  store i1 false, ptr %8, align 1
  br label %52

52:                                               ; preds = %46, %45
  %53 = load i1, ptr %8, align 1
  br i1 %53, label %56, label %54

54:                                               ; preds = %52
  %55 = load ptr, ptr @poisoned_decl, align 8
  store ptr %55, ptr %21, align 8
  br label %182

56:                                               ; preds = %52
  %57 = load ptr, ptr %22, align 8
  call void @advance(ptr noundef %57)
  br label %58

58:                                               ; preds = %56
  %59 = load ptr, ptr %22, align 8
  %60 = call ptr @parse_constant_expr(ptr noundef %59)
  store ptr %60, ptr %25, align 8
  %61 = load ptr, ptr %25, align 8
  store ptr %61, ptr %2, align 8
  %62 = load ptr, ptr %2, align 8
  %63 = icmp eq ptr %62, null
  br i1 %63, label %71, label %64

64:                                               ; preds = %58
  %65 = load ptr, ptr %2, align 8
  %66 = getelementptr inbounds %struct.Expr_, ptr %65, i32 0, i32 2
  %67 = load i16, ptr %66, align 8
  %68 = and i16 %67, 255
  %69 = zext i16 %68 to i32
  %70 = icmp ne i32 %69, 0
  br label %71

71:                                               ; preds = %64, %58
  %72 = phi i1 [ true, %58 ], [ %70, %64 ]
  br i1 %72, label %75, label %73

73:                                               ; preds = %71
  %74 = load ptr, ptr @poisoned_decl, align 8
  store ptr %74, ptr %21, align 8
  br label %182

75:                                               ; preds = %71
  %76 = load ptr, ptr %25, align 8
  %77 = load ptr, ptr %24, align 8
  %78 = getelementptr inbounds %struct.Decl_, ptr %77, i32 0, i32 11
  %79 = getelementptr inbounds %struct.ExecDecl, ptr %78, i32 0, i32 0
  store ptr %76, ptr %79, align 8
  br label %80

80:                                               ; preds = %134, %75
  %81 = load ptr, ptr %22, align 8
  %82 = call zeroext i1 @try_consume(ptr noundef %81, i32 noundef 8)
  br i1 %82, label %83, label %135

83:                                               ; preds = %80
  %84 = load ptr, ptr %22, align 8
  %85 = call ptr @parse_constant_expr(ptr noundef %84)
  store ptr %85, ptr %26, align 8
  %86 = load ptr, ptr %26, align 8
  store ptr %86, ptr %3, align 8
  %87 = load ptr, ptr %3, align 8
  %88 = icmp eq ptr %87, null
  br i1 %88, label %96, label %89

89:                                               ; preds = %83
  %90 = load ptr, ptr %3, align 8
  %91 = getelementptr inbounds %struct.Expr_, ptr %90, i32 0, i32 2
  %92 = load i16, ptr %91, align 8
  %93 = and i16 %92, 255
  %94 = zext i16 %93 to i32
  %95 = icmp ne i32 %94, 0
  br label %96

96:                                               ; preds = %89, %83
  %97 = phi i1 [ true, %83 ], [ %95, %89 ]
  br i1 %97, label %100, label %98

98:                                               ; preds = %96
  %99 = load ptr, ptr @poisoned_decl, align 8
  store ptr %99, ptr %21, align 8
  br label %182

100:                                              ; preds = %96
  %101 = load ptr, ptr %26, align 8
  store ptr %101, ptr %27, align 8
  br label %102

102:                                              ; preds = %100
  %103 = load ptr, ptr %24, align 8
  %104 = getelementptr inbounds %struct.Decl_, ptr %103, i32 0, i32 11
  %105 = getelementptr inbounds %struct.ExecDecl, ptr %104, i32 0, i32 1
  %106 = load ptr, ptr %105, align 8
  %107 = call ptr @expand_(ptr noundef %106, i64 noundef 8)
  store ptr %107, ptr %28, align 8
  %108 = load ptr, ptr %28, align 8
  %109 = load ptr, ptr %24, align 8
  %110 = getelementptr inbounds %struct.Decl_, ptr %109, i32 0, i32 11
  %111 = getelementptr inbounds %struct.ExecDecl, ptr %110, i32 0, i32 1
  store ptr %108, ptr %111, align 8
  %112 = load ptr, ptr %27, align 8
  %113 = load ptr, ptr %24, align 8
  %114 = getelementptr inbounds %struct.Decl_, ptr %113, i32 0, i32 11
  %115 = getelementptr inbounds %struct.ExecDecl, ptr %114, i32 0, i32 1
  %116 = load ptr, ptr %115, align 8
  %117 = load ptr, ptr %24, align 8
  %118 = getelementptr inbounds %struct.Decl_, ptr %117, i32 0, i32 11
  %119 = getelementptr inbounds %struct.ExecDecl, ptr %118, i32 0, i32 1
  %120 = load ptr, ptr %119, align 8
  store ptr %120, ptr %17, align 8
  %121 = load ptr, ptr %17, align 8
  %122 = icmp ne ptr %121, null
  br i1 %122, label %124, label %123

123:                                              ; preds = %102
  store i32 0, ptr %16, align 4
  br label %129

124:                                              ; preds = %102
  %125 = load ptr, ptr %17, align 8
  store ptr %125, ptr %18, align 8
  %126 = load ptr, ptr %18, align 8
  %127 = getelementptr inbounds %struct.VHeader_, ptr %126, i64 -1
  %128 = load i32, ptr %127, align 4
  store i32 %128, ptr %16, align 4
  br label %129

129:                                              ; preds = %124, %123
  %130 = load i32, ptr %16, align 4
  %131 = sub i32 %130, 1
  %132 = zext i32 %131 to i64
  %133 = getelementptr inbounds ptr, ptr %116, i64 %132
  store ptr %112, ptr %133, align 8
  br label %134

134:                                              ; preds = %129
  br label %80, !llvm.loop !22

135:                                              ; preds = %80
  br label %136

136:                                              ; preds = %135
  %137 = load ptr, ptr %22, align 8
  store ptr %137, ptr %14, align 8
  store i32 26, ptr %15, align 4
  %138 = load ptr, ptr %14, align 8
  %139 = load i32, ptr %15, align 4
  store ptr %138, ptr %11, align 8
  store i32 %139, ptr %12, align 4
  %140 = load ptr, ptr %11, align 8
  %141 = getelementptr inbounds %struct.ParseContext_, ptr %140, i32 0, i32 1
  %142 = load i32, ptr %141, align 8
  %143 = load i32, ptr %12, align 4
  %144 = icmp eq i32 %142, %143
  br i1 %144, label %145, label %146

145:                                              ; preds = %136
  store i1 true, ptr %13, align 1
  br label %152

146:                                              ; preds = %136
  %147 = load ptr, ptr %14, align 8
  %148 = getelementptr inbounds %struct.ParseContext_, ptr %147, i32 0, i32 2
  %149 = load i32, ptr %15, align 4
  %150 = call ptr @token_type_to_string(i32 noundef %149) #6
  %151 = load i64, ptr %148, align 8
  call void (i64, ptr, ...) @sema_error_at(i64 %151, ptr noundef @.str.82, ptr noundef %150) #6
  store i1 false, ptr %13, align 1
  br label %152

152:                                              ; preds = %146, %145
  %153 = load i1, ptr %13, align 1
  br i1 %153, label %156, label %154

154:                                              ; preds = %152
  %155 = load ptr, ptr @poisoned_decl, align 8
  store ptr %155, ptr %21, align 8
  br label %182

156:                                              ; preds = %152
  %157 = load ptr, ptr %22, align 8
  call void @advance(ptr noundef %157)
  br label %158

158:                                              ; preds = %156
  %159 = load ptr, ptr %22, align 8
  %160 = load ptr, ptr %24, align 8
  %161 = call zeroext i1 @parse_attributes_for_global(ptr noundef %159, ptr noundef %160)
  br i1 %161, label %164, label %162

162:                                              ; preds = %158
  %163 = load ptr, ptr @poisoned_decl, align 8
  store ptr %163, ptr %21, align 8
  br label %182

164:                                              ; preds = %158
  br label %165

165:                                              ; preds = %164
  %166 = load ptr, ptr %22, align 8
  store ptr %166, ptr %19, align 8
  store i32 9, ptr %20, align 4
  %167 = load ptr, ptr %19, align 8
  %168 = getelementptr inbounds %struct.ParseContext_, ptr %167, i32 0, i32 1
  %169 = load i32, ptr %168, align 8
  %170 = load i32, ptr %20, align 4
  %171 = icmp eq i32 %169, %170
  br i1 %171, label %178, label %172

172:                                              ; preds = %165
  %173 = load ptr, ptr %22, align 8
  %174 = getelementptr inbounds %struct.ParseContext_, ptr %173, i32 0, i32 3
  %175 = getelementptr inbounds %union.SourceSpan, ptr %174, i32 0, i32 0
  %176 = load i64, ptr %175, align 8
  call void (i64, ptr, ...) @sema_error_at_after(i64 %176, ptr noundef @.str.16)
  %177 = load ptr, ptr @poisoned_decl, align 8
  store ptr %177, ptr %21, align 8
  br label %182

178:                                              ; preds = %165
  %179 = load ptr, ptr %22, align 8
  call void @advance(ptr noundef %179)
  br label %180

180:                                              ; preds = %178
  %181 = load ptr, ptr %24, align 8
  store ptr %181, ptr %21, align 8
  br label %182

182:                                              ; preds = %180, %172, %162, %154, %98, %73, %54
  %183 = load ptr, ptr %21, align 8
  ret ptr %183
}