; Function Attrs: nounwind uwtable
define internal fastcc ptr @parse_exec(ptr noundef %0) unnamed_addr #0 {
  %2 = getelementptr inbounds i8, ptr %0, i64 48
  %.sroa.0.0.copyload = load i64, ptr %2, align 8
  %3 = tail call ptr @decl_new(i32 noundef 6, ptr noundef null, i64 %.sroa.0.0.copyload) #8
  tail call void @advance(ptr noundef %0) #8
  %4 = getelementptr inbounds i8, ptr %0, i64 40
  %5 = load i32, ptr %4, align 8
  %6 = icmp eq i32 %5, 19
  br i1 %6, label %.critedge62, label %7

7:                                                ; preds = %1
  %8 = tail call ptr @token_type_to_string(i32 noundef 19) #8
  %9 = load i64, ptr %2, align 8
  tail call void (i64, ptr, ...) @sema_error_at(i64 %9, ptr noundef nonnull @.str.82, ptr noundef %8) #8
  %10 = load ptr, ptr @poisoned_decl, align 8
  br label %81

.critedge62:                                      ; preds = %1
  tail call void @advance(ptr noundef nonnull %0) #8
  %11 = tail call ptr @parse_constant_expr(ptr noundef nonnull %0) #8
  %12 = icmp eq ptr %11, null
  br i1 %12, label %.critedge, label %13

13:                                               ; preds = %.critedge62
  %14 = getelementptr inbounds i8, ptr %11, i64 16
  %15 = load i16, ptr %14, align 8
  %16 = and i16 %15, 255
  %.not = icmp eq i16 %16, 0
  br i1 %.not, label %17, label %.critedge

17:                                               ; preds = %13
  %18 = load ptr, ptr @poisoned_decl, align 8
  br label %81

.critedge:                                        ; preds = %.critedge62, %13
  %19 = getelementptr inbounds i8, ptr %3, i64 80
  store ptr %11, ptr %19, align 8
  %20 = tail call zeroext i1 @try_consume(ptr noundef nonnull %0, i32 noundef 8) #8
  br i1 %20, label %.lr.ph, label %._crit_edge

.lr.ph:                                           ; preds = %.critedge
  %21 = getelementptr inbounds i8, ptr %3, i64 88
  br label %22

22:                                               ; preds = %.lr.ph, %55
  %23 = tail call ptr @parse_constant_expr(ptr noundef %0) #8
  %24 = icmp eq ptr %23, null
  br i1 %24, label %.critedge2, label %25

25:                                               ; preds = %22
  %26 = getelementptr inbounds i8, ptr %23, i64 16
  %27 = load i16, ptr %26, align 8
  %28 = and i16 %27, 255
  %.not59 = icmp eq i16 %28, 0
  br i1 %.not59, label %29, label %.critedge2

29:                                               ; preds = %25
  %30 = load ptr, ptr @poisoned_decl, align 8
  br label %81

.critedge2:                                       ; preds = %22, %25
  %31 = load ptr, ptr %21, align 8
  %.not.i = icmp eq ptr %31, null
  br i1 %.not.i, label %32, label %35

32:                                               ; preds = %.critedge2
  %33 = tail call ptr @calloc_arena(i64 noundef 72) #8
  %34 = getelementptr inbounds i8, ptr %33, i64 4
  store i32 8, ptr %34, align 4
  br label %37

35:                                               ; preds = %.critedge2
  %36 = getelementptr inbounds i8, ptr %31, i64 -8
  %.phi.trans.insert.i = getelementptr inbounds i8, ptr %31, i64 -4
  %.pre.i = load i32, ptr %.phi.trans.insert.i, align 4
  br label %37

37:                                               ; preds = %35, %32
  %38 = phi i32 [ %.pre.i, %35 ], [ 8, %32 ]
  %.0.i = phi ptr [ %36, %35 ], [ %33, %32 ]
  %39 = load i32, ptr %.0.i, align 4
  %40 = icmp eq i32 %39, %38
  br i1 %40, label %41, label %55

41:                                               ; preds = %37
  %42 = getelementptr inbounds i8, ptr %.0.i, i64 4
  %43 = shl i32 %38, 1
  %44 = zext i32 %43 to i64
  %45 = shl nuw nsw i64 %44, 3
  %46 = or disjoint i64 %45, 8
  %47 = tail call ptr @calloc_arena(i64 noundef %46) #8
  %48 = getelementptr inbounds i8, ptr %47, i64 4
  store i32 %43, ptr %48, align 4
  %49 = load i32, ptr %42, align 4
  %50 = zext i32 %49 to i64
  %51 = shl nuw nsw i64 %50, 3
  %52 = add nuw nsw i64 %51, 8
  tail call void @llvm.memcpy.p0.p0.i64(ptr noundef nonnull align 4 dereferenceable(1) %47, ptr noundef nonnull align 4 dereferenceable(1) %.0.i, i64 %52, i1 false)
  %53 = load i32, ptr %48, align 4
  %54 = shl i32 %53, 1
  store i32 %54, ptr %48, align 4
  %.pre18.i = load i32, ptr %47, align 4
  br label %55

55:                                               ; preds = %37, %41
  %56 = phi i32 [ %.pre18.i, %41 ], [ %39, %37 ]
  %.1.i = phi ptr [ %47, %41 ], [ %.0.i, %37 ]
  %57 = add i32 %56, 1
  store i32 %57, ptr %.1.i, align 4
  %58 = getelementptr inbounds i8, ptr %.1.i, i64 8
  store ptr %58, ptr %21, align 8
  %59 = load i32, ptr %.1.i, align 4
  %60 = add i32 %59, -1
  %61 = zext i32 %60 to i64
  %62 = getelementptr inbounds ptr, ptr %58, i64 %61
  store ptr %23, ptr %62, align 8
  %63 = tail call zeroext i1 @try_consume(ptr noundef %0, i32 noundef 8) #8
  br i1 %63, label %22, label %._crit_edge, !llvm.loop !22

._crit_edge:                                      ; preds = %55, %.critedge
  %64 = load i32, ptr %4, align 8
  %65 = icmp eq i32 %64, 26
  br i1 %65, label %.critedge64, label %66

66:                                               ; preds = %._crit_edge
  %67 = tail call ptr @token_type_to_string(i32 noundef 26) #8
  %68 = load i64, ptr %2, align 8
  tail call void (i64, ptr, ...) @sema_error_at(i64 %68, ptr noundef nonnull @.str.82, ptr noundef %67) #8
  %69 = load ptr, ptr @poisoned_decl, align 8
  br label %81

.critedge64:                                      ; preds = %._crit_edge
  tail call void @advance(ptr noundef nonnull %0) #8
  %70 = tail call fastcc zeroext i1 @parse_attributes_for_global(ptr noundef nonnull %0, ptr noundef nonnull %3)
  br i1 %70, label %73, label %71

71:                                               ; preds = %.critedge64
  %72 = load ptr, ptr @poisoned_decl, align 8
  br label %81

73:                                               ; preds = %.critedge64
  %74 = load i32, ptr %4, align 8
  %75 = icmp eq i32 %74, 9
  br i1 %75, label %80, label %76

76:                                               ; preds = %73
  %77 = getelementptr inbounds i8, ptr %0, i64 56
  %78 = load i64, ptr %77, align 8
  tail call void (i64, ptr, ...) @sema_error_at_after(i64 %78, ptr noundef nonnull @.str.16) #8
  %79 = load ptr, ptr @poisoned_decl, align 8
  br label %81

80:                                               ; preds = %73
  tail call void @advance(ptr noundef nonnull %0) #8
  br label %81

81:                                               ; preds = %80, %76, %71, %66, %29, %17, %7
  %.055 = phi ptr [ %30, %29 ], [ %3, %80 ], [ %79, %76 ], [ %72, %71 ], [ %69, %66 ], [ %18, %17 ], [ %10, %7 ]
  ret ptr %.055
}